target datalayout = "e-m:e-p270:32:32-p271:32:32-p272:64:64-i64:64-i128:128-f80:128-n8:16:32:64-S128"
target triple = "x86_64-pc-linux-gnu"

%struct.GetBitContext = type { ptr, ptr, i32, i32, i32 }

; Function Attrs: alwaysinline nounwind willreturn memory(none) uwtable
define internal i32 @av_clip_c(i32 noundef %0, i32 noundef %1, i32 noundef %2) #7 {
  %4 = alloca i32, align 4
  %5 = alloca i32, align 4
  %6 = alloca i32, align 4
  %7 = alloca i32, align 4
  store i32 %0, ptr %5, align 4, !tbaa !31
  store i32 %1, ptr %6, align 4, !tbaa !31
  store i32 %2, ptr %7, align 4, !tbaa !31
  %8 = load i32, ptr %5, align 4, !tbaa !31
  %9 = load i32, ptr %6, align 4, !tbaa !31
  %10 = icmp slt i32 %8, %9
  br i1 %10, label %11, label %13

11:                                               ; preds = %3
  %12 = load i32, ptr %6, align 4, !tbaa !31
  store i32 %12, ptr %4, align 4
  br label %21

13:                                               ; preds = %3
  %14 = load i32, ptr %5, align 4, !tbaa !31
  %15 = load i32, ptr %7, align 4, !tbaa !31
  %16 = icmp sgt i32 %14, %15
  br i1 %16, label %17, label %19

17:                                               ; preds = %13
  %18 = load i32, ptr %7, align 4, !tbaa !31
  store i32 %18, ptr %4, align 4
  br label %21

19:                                               ; preds = %13
  %20 = load i32, ptr %5, align 4, !tbaa !31
  store i32 %20, ptr %4, align 4
  br label %21

21:                                               ; preds = %19, %17, %11
  %22 = load i32, ptr %4, align 4
  ret i32 %22
}

; Function Attrs: alwaysinline nounwind willreturn memory(none) uwtable
define internal i32 @av_bswap32(i32 noundef %0) #7 {
  %2 = alloca i32, align 4
  store i32 %0, ptr %2, align 4, !tbaa !31
  %3 = load i32, ptr %2, align 4, !tbaa !31
  %4 = shl i32 %3, 8
  %5 = and i32 %4, 65280
  %6 = load i32, ptr %2, align 4, !tbaa !31
  %7 = lshr i32 %6, 8
  %8 = and i32 %7, 255
  %9 = or i32 %5, %8
  %10 = shl i32 %9, 16
  %11 = load i32, ptr %2, align 4, !tbaa !31
  %12 = lshr i32 %11, 16
  %13 = shl i32 %12, 8
  %14 = and i32 %13, 65280
  %15 = load i32, ptr %2, align 4, !tbaa !31
  %16 = lshr i32 %15, 16
  %17 = lshr i32 %16, 8
  %18 = and i32 %17, 255
  %19 = or i32 %14, %18
  %20 = or i32 %10, %19
  ret i32 %20
}

; Function Attrs: inlinehint nounwind uwtable
define internal i32 @init_get_bits(ptr noundef %0, ptr noundef %1, i32 noundef %2) #9 {
  %4 = alloca ptr, align 8
  %5 = alloca ptr, align 8
  %6 = alloca i32, align 4
  %7 = alloca i32, align 4
  %8 = alloca i32, align 4
  store ptr %0, ptr %4, align 8, !tbaa !179
  store ptr %1, ptr %5, align 8, !tbaa !54
  store i32 %2, ptr %6, align 4, !tbaa !31
  call void @llvm.lifetime.start.p0(i64 4, ptr %7) #12
  call void @llvm.lifetime.start.p0(i64 4, ptr %8) #12
  store i32 0, ptr %8, align 4, !tbaa !31
  %9 = load i32, ptr %6, align 4, !tbaa !31
  %10 = icmp sge i32 %9, 2147483135
  br i1 %10, label %17, label %11

11:                                               ; preds = %3
  %12 = load i32, ptr %6, align 4, !tbaa !31
  %13 = icmp slt i32 %12, 0
  br i1 %13, label %17, label %14

14:                                               ; preds = %11
  %15 = load ptr, ptr %5, align 8, !tbaa !54
  %16 = icmp ne ptr %15, null
  br i1 %16, label %18, label %17

17:                                               ; preds = %14, %11, %3
  store i32 0, ptr %6, align 4, !tbaa !31
  store ptr null, ptr %5, align 8, !tbaa !54
  store i32 -1094995529, ptr %8, align 4, !tbaa !31
  br label %18

18:                                               ; preds = %17, %14
  %19 = load i32, ptr %6, align 4, !tbaa !31
  %20 = add nsw i32 %19, 7
  %21 = ashr i32 %20, 3
  store i32 %21, ptr %7, align 4, !tbaa !31
  %22 = load ptr, ptr %5, align 8, !tbaa !54
  %23 = load ptr, ptr %4, align 8, !tbaa !179
  %24 = getelementptr inbounds nuw %struct.GetBitContext, ptr %23, i32 0, i32 0
  store ptr %22, ptr %24, align 8, !tbaa !187
  %25 = load i32, ptr %6, align 4, !tbaa !31
  %26 = load ptr, ptr %4, align 8, !tbaa !179
  %27 = getelementptr inbounds nuw %struct.GetBitContext, ptr %26, i32 0, i32 3
  store i32 %25, ptr %27, align 4, !tbaa !189
  %28 = load i32, ptr %6, align 4, !tbaa !31
  %29 = add nsw i32 %28, 8
  %30 = load ptr, ptr %4, align 8, !tbaa !179
  %31 = getelementptr inbounds nuw %struct.GetBitContext, ptr %30, i32 0, i32 4
  store i32 %29, ptr %31, align 8, !tbaa !190
  %32 = load ptr, ptr %5, align 8, !tbaa !54
  %33 = load i32, ptr %7, align 4, !tbaa !31
  %34 = sext i32 %33 to i64
  %35 = getelementptr inbounds i8, ptr %32, i64 %34
  %36 = load ptr, ptr %4, align 8, !tbaa !179
  %37 = getelementptr inbounds nuw %struct.GetBitContext, ptr %36, i32 0, i32 1
  store ptr %35, ptr %37, align 8, !tbaa !191
  %38 = load ptr, ptr %4, align 8, !tbaa !179
  %39 = getelementptr inbounds nuw %struct.GetBitContext, ptr %38, i32 0, i32 2
  store i32 0, ptr %39, align 8, !tbaa !192
  %40 = load i32, ptr %8, align 4, !tbaa !31
  call void @llvm.lifetime.end.p0(i64 4, ptr %8) #12
  call void @llvm.lifetime.end.p0(i64 4, ptr %7) #12
  ret i32 %40
}

; Function Attrs: inlinehint nounwind uwtable
define internal void @skip_bits_long(ptr noundef %0, i32 noundef %1) #9 {
  %3 = alloca ptr, align 8
  %4 = alloca i32, align 4
  store ptr %0, ptr %3, align 8, !tbaa !179
  store i32 %1, ptr %4, align 4, !tbaa !31
  %5 = load i32, ptr %4, align 4, !tbaa !31
  %6 = load ptr, ptr %3, align 8, !tbaa !179
  %7 = getelementptr inbounds nuw %struct.GetBitContext, ptr %6, i32 0, i32 2
  %8 = load i32, ptr %7, align 8, !tbaa !192
  %9 = sub nsw i32 0, %8
  %10 = load ptr, ptr %3, align 8, !tbaa !179
  %11 = getelementptr inbounds nuw %struct.GetBitContext, ptr %10, i32 0, i32 4
  %12 = load i32, ptr %11, align 8, !tbaa !190
  %13 = load ptr, ptr %3, align 8, !tbaa !179
  %14 = getelementptr inbounds nuw %struct.GetBitContext, ptr %13, i32 0, i32 2
  %15 = load i32, ptr %14, align 8, !tbaa !192
  %16 = sub nsw i32 %12, %15
  %17 = call i32 @av_clip_c(i32 noundef %5, i32 noundef %9, i32 noundef %16) #16
  %18 = load ptr, ptr %3, align 8, !tbaa !179
  %19 = getelementptr inbounds nuw %struct.GetBitContext, ptr %18, i32 0, i32 2
  %20 = load i32, ptr %19, align 8, !tbaa !192
  %21 = add nsw i32 %20, %17
  store i32 %21, ptr %19, align 8, !tbaa !192
  ret void
}

; Function Attrs: inlinehint nounwind uwtable
define internal i32 @get_bits(ptr noundef %0, i32 noundef %1) #9 {
  %3 = alloca ptr, align 8
  %4 = alloca i32, align 4
  %5 = alloca i32, align 4
  %6 = alloca i32, align 4
  %7 = alloca i32, align 4
  %8 = alloca i32, align 4
  store ptr %0, ptr %3, align 8, !tbaa !179
  store i32 %1, ptr %4, align 4, !tbaa !31
  call void @llvm.lifetime.start.p0(i64 4, ptr %5) #12
  call void @llvm.lifetime.start.p0(i64 4, ptr %6) #12
  %9 = load ptr, ptr %3, align 8, !tbaa !179
  %10 = getelementptr inbounds nuw %struct.GetBitContext, ptr %9, i32 0, i32 2
  %11 = load i32, ptr %10, align 8, !tbaa !192
  store i32 %11, ptr %6, align 4, !tbaa !31
  call void @llvm.lifetime.start.p0(i64 4, ptr %7) #12
  call void @llvm.lifetime.start.p0(i64 4, ptr %8) #12
  %12 = load ptr, ptr %3, align 8, !tbaa !179
  %13 = getelementptr inbounds nuw %struct.GetBitContext, ptr %12, i32 0, i32 4
  %14 = load i32, ptr %13, align 8, !tbaa !190
  store i32 %14, ptr %8, align 4, !tbaa !31
  %15 = load ptr, ptr %3, align 8, !tbaa !179
  %16 = getelementptr inbounds nuw %struct.GetBitContext, ptr %15, i32 0, i32 0
  %17 = load ptr, ptr %16, align 8, !tbaa !187
  %18 = load i32, ptr %6, align 4, !tbaa !31
  %19 = lshr i32 %18, 3
  %20 = zext i32 %19 to i64
  %21 = getelementptr inbounds nuw i8, ptr %17, i64 %20
  %22 = load i32, ptr %21, align 1, !tbaa !102
  %23 = call i32 @av_bswap32(i32 noundef %22) #16
  %24 = load i32, ptr %6, align 4, !tbaa !31
  %25 = and i32 %24, 7
  %26 = shl i32 %23, %25
  %27 = lshr i32 %26, 0
  store i32 %27, ptr %7, align 4, !tbaa !31
  %28 = load i32, ptr %7, align 4, !tbaa !31
  %29 = load i32, ptr %4, align 4, !tbaa !31
  %30 = sub nsw i32 32, %29
  %31 = lshr i32 %28, %30
  store i32 %31, ptr %5, align 4, !tbaa !31
  %32 = load i32, ptr %8, align 4, !tbaa !31
  %33 = load i32, ptr %6, align 4, !tbaa !31
  %34 = load i32, ptr %4, align 4, !tbaa !31
  %35 = add i32 %33, %34
  %36 = icmp ugt i32 %32, %35
  br i1 %36, label %37, label %41

37:                                               ; preds = %2
  %38 = load i32, ptr %6, align 4, !tbaa !31
  %39 = load i32, ptr %4, align 4, !tbaa !31
  %40 = add i32 %38, %39
  br label %43

41:                                               ; preds = %2
  %42 = load i32, ptr %8, align 4, !tbaa !31
  br label %43

43:                                               ; preds = %41, %37
  %44 = phi i32 [ %40, %37 ], [ %42, %41 ]
  store i32 %44, ptr %6, align 4, !tbaa !31
  %45 = load i32, ptr %6, align 4, !tbaa !31
  %46 = load ptr, ptr %3, align 8, !tbaa !179
  %47 = getelementptr inbounds nuw %struct.GetBitContext, ptr %46, i32 0, i32 2
  store i32 %45, ptr %47, align 8, !tbaa !192
  %48 = load i32, ptr %5, align 4, !tbaa !31
  call void @llvm.lifetime.end.p0(i64 4, ptr %8) #12
  call void @llvm.lifetime.end.p0(i64 4, ptr %7) #12
  call void @llvm.lifetime.end.p0(i64 4, ptr %6) #12
  call void @llvm.lifetime.end.p0(i64 4, ptr %5) #12
  ret i32 %48
}

; Function Attrs: inlinehint nounwind uwtable
define internal i32 @init_get_bits8(ptr noundef %0, ptr noundef %1, i32 noundef %2) #9 {
  %4 = alloca ptr, align 8
  %5 = alloca ptr, align 8
  %6 = alloca i32, align 4
  store ptr %0, ptr %4, align 8, !tbaa !179
  store ptr %1, ptr %5, align 8, !tbaa !54
  store i32 %2, ptr %6, align 4, !tbaa !31
  %7 = load i32, ptr %6, align 4, !tbaa !31
  %8 = icmp sgt i32 %7, 268435455
  br i1 %8, label %12, label %9

9:                                                ; preds = %3
  %10 = load i32, ptr %6, align 4, !tbaa !31
  %11 = icmp slt i32 %10, 0
  br i1 %11, label %12, label %13

12:                                               ; preds = %9, %3
  store i32 -1, ptr %6, align 4, !tbaa !31
  br label %13

13:                                               ; preds = %12, %9
  %14 = load ptr, ptr %4, align 8, !tbaa !179
  %15 = load ptr, ptr %5, align 8, !tbaa !54
  %16 = load i32, ptr %6, align 4, !tbaa !31
  %17 = mul nsw i32 %16, 8
  %18 = call i32 @init_get_bits(ptr noundef %14, ptr noundef %15, i32 noundef %17)
  ret i32 %18
}

; Function Attrs: nounwind uwtable
define internal i32 @kempf_restore_buf(ptr noundef %0, i32 noundef %1, ptr noundef %2, i32 noundef %3, ptr noundef %4, i32 noundef %5, i32 noundef %6, i32 noundef %7, ptr noundef %8, i32 noundef %9, i32 noundef %10) #1 {
  %12 = alloca i32, align 4
  %13 = alloca ptr, align 8
  %14 = alloca i32, align 4
  %15 = alloca ptr, align 8
  %16 = alloca i32, align 4
  %17 = alloca ptr, align 8
  %18 = alloca i32, align 4
  %19 = alloca i32, align 4
  %20 = alloca i32, align 4
  %21 = alloca ptr, align 8
  %22 = alloca i32, align 4
  %23 = alloca i32, align 4
  %24 = alloca %struct.GetBitContext, align 8
  %25 = alloca i32, align 4
  %26 = alloca i32, align 4
  %27 = alloca i32, align 4
  %28 = alloca i32, align 4
  %29 = alloca i32, align 4
  %30 = alloca i32, align 4
  %31 = alloca i32, align 4
  store ptr %0, ptr %13, align 8, !tbaa !54
  store i32 %1, ptr %14, align 4, !tbaa !31
  store ptr %2, ptr %15, align 8, !tbaa !54
  store i32 %3, ptr %16, align 4, !tbaa !31
  store ptr %4, ptr %17, align 8, !tbaa !54
  store i32 %5, ptr %18, align 4, !tbaa !31
  store i32 %6, ptr %19, align 4, !tbaa !31
  store i32 %7, ptr %20, align 4, !tbaa !31
  store ptr %8, ptr %21, align 8, !tbaa !54
  store i32 %9, ptr %22, align 4, !tbaa !31
  store i32 %10, ptr %23, align 4, !tbaa !31
  call void @llvm.lifetime.start.p0(i64 32, ptr %24) #12
  call void @llvm.lifetime.start.p0(i64 4, ptr %25) #12
  call void @llvm.lifetime.start.p0(i64 4, ptr %26) #12
  call void @llvm.lifetime.start.p0(i64 4, ptr %27) #12
  call void @llvm.lifetime.start.p0(i64 4, ptr %28) #12
  call void @llvm.lifetime.start.p0(i64 4, ptr %29) #12
  call void @llvm.lifetime.start.p0(i64 4, ptr %30) #12
  %32 = load i32, ptr %19, align 4, !tbaa !31
  %33 = add nsw i32 %32, 16
  %34 = sub nsw i32 %33, 1
  %35 = and i32 %34, -16
  store i32 %35, ptr %30, align 4, !tbaa !31
  %36 = load ptr, ptr %13, align 8, !tbaa !54
  %37 = load i32, ptr %14, align 4, !tbaa !31
  %38 = call i32 @init_get_bits8(ptr noundef %24, ptr noundef %36, i32 noundef %37)
  store i32 %38, ptr %29, align 4, !tbaa !31
  %39 = icmp slt i32 %38, 0
  br i1 %39, label %40, label %42

40:                                               ; preds = %11
  %41 = load i32, ptr %29, align 4, !tbaa !31
  store i32 %41, ptr %12, align 4
  store i32 1, ptr %31, align 4
  br label %128

42:                                               ; preds = %11
  %43 = load i32, ptr %22, align 4, !tbaa !31
  %44 = icmp sle i32 %43, 2
  br i1 %44, label %45, label %46

45:                                               ; preds = %42
  store i32 1, ptr %27, align 4, !tbaa !31
  br label %57

46:                                               ; preds = %42
  %47 = load i32, ptr %22, align 4, !tbaa !31
  %48 = icmp sle i32 %47, 4
  br i1 %48, label %49, label %50

49:                                               ; preds = %46
  store i32 2, ptr %27, align 4, !tbaa !31
  br label %56

50:                                               ; preds = %46
  %51 = load i32, ptr %22, align 4, !tbaa !31
  %52 = icmp sle i32 %51, 16
  br i1 %52, label %53, label %54

53:                                               ; preds = %50
  store i32 4, ptr %27, align 4, !tbaa !31
  br label %55

54:                                               ; preds = %50
  store i32 8, ptr %27, align 4, !tbaa !31
  br label %55

55:                                               ; preds = %54, %53
  br label %56

56:                                               ; preds = %55, %49
  br label %57

57:                                               ; preds = %56, %45
  store i32 0, ptr %26, align 4, !tbaa !31
  br label %58

58:                                               ; preds = %125, %57
  %59 = load i32, ptr %26, align 4, !tbaa !31
  %60 = load i32, ptr %20, align 4, !tbaa !31
  %61 = icmp slt i32 %59, %60
  br i1 %61, label %62, label %127

62:                                               ; preds = %58
  %63 = call i32 @get_bits(ptr noundef %24, i32 noundef 8)
  %64 = icmp ne i32 %63, 0
  br i1 %64, label %65, label %66

65:                                               ; preds = %62
  br label %109

66:                                               ; preds = %62
  store i32 0, ptr %25, align 4, !tbaa !31
  br label %67

67:                                               ; preds = %100, %66
  %68 = load i32, ptr %25, align 4, !tbaa !31
  %69 = load i32, ptr %19, align 4, !tbaa !31
  %70 = icmp slt i32 %68, %69
  br i1 %70, label %71, label %103

71:                                               ; preds = %67
  %72 = load i32, ptr %27, align 4, !tbaa !31
  %73 = call i32 @get_bits(ptr noundef %24, i32 noundef %72)
  store i32 %73, ptr %28, align 4, !tbaa !31
  %74 = load i32, ptr %28, align 4, !tbaa !31
  %75 = load i32, ptr %23, align 4, !tbaa !31
  %76 = icmp ne i32 %74, %75
  br i1 %76, label %77, label %88

77:                                               ; preds = %71
  %78 = load ptr, ptr %15, align 8, !tbaa !54
  %79 = load i32, ptr %25, align 4, !tbaa !31
  %80 = mul nsw i32 %79, 3
  %81 = sext i32 %80 to i64
  %82 = getelementptr inbounds i8, ptr %78, i64 %81
  %83 = load ptr, ptr %21, align 8, !tbaa !54
  %84 = load i32, ptr %28, align 4, !tbaa !31
  %85 = mul nsw i32 %84, 3
  %86 = sext i32 %85 to i64
  %87 = getelementptr inbounds i8, ptr %83, i64 %86
  call void @llvm.memcpy.p0.p0.i64(ptr align 1 %82, ptr align 1 %87, i64 3, i1 false)
  br label %99

88:                                               ; preds = %71
  %89 = load ptr, ptr %15, align 8, !tbaa !54
  %90 = load i32, ptr %25, align 4, !tbaa !31
  %91 = mul nsw i32 %90, 3
  %92 = sext i32 %91 to i64
  %93 = getelementptr inbounds i8, ptr %89, i64 %92
  %94 = load ptr, ptr %17, align 8, !tbaa !54
  %95 = load i32, ptr %25, align 4, !tbaa !31
  %96 = mul nsw i32 %95, 3
  %97 = sext i32 %96 to i64
  %98 = getelementptr inbounds i8, ptr %94, i64 %97
  call void @llvm.memcpy.p0.p0.i64(ptr align 1 %93, ptr align 1 %98, i64 3, i1 false)
  br label %99

99:                                               ; preds = %88, %77
  br label %100

100:                                              ; preds = %99
  %101 = load i32, ptr %25, align 4, !tbaa !31
  %102 = add nsw i32 %101, 1
  store i32 %102, ptr %25, align 4, !tbaa !31
  br label %67, !llvm.loop !194

103:                                              ; preds = %67
  %104 = load i32, ptr %27, align 4, !tbaa !31
  %105 = load i32, ptr %30, align 4, !tbaa !31
  %106 = load i32, ptr %19, align 4, !tbaa !31
  %107 = sub nsw i32 %105, %106
  %108 = mul nsw i32 %104, %107
  call void @skip_bits_long(ptr noundef %24, i32 noundef %108)
  br label %109

109:                                              ; preds = %103, %65
  %110 = load i32, ptr %26, align 4, !tbaa !31
  %111 = add nsw i32 %110, 1
  store i32 %111, ptr %26, align 4, !tbaa !31
  %112 = load i32, ptr %16, align 4, !tbaa !31
  %113 = load ptr, ptr %15, align 8, !tbaa !54
  %114 = sext i32 %112 to i64
  %115 = getelementptr inbounds i8, ptr %113, i64 %114
  store ptr %115, ptr %15, align 8, !tbaa !54
  %116 = load i32, ptr %18, align 4, !tbaa !31
  %117 = icmp ne i32 %116, 0
  br i1 %117, label %118, label %123

118:                                              ; preds = %109
  %119 = load ptr, ptr %17, align 8, !tbaa !54
  %120 = load i32, ptr %18, align 4, !tbaa !31
  %121 = sext i32 %120 to i64
  %122 = getelementptr inbounds i8, ptr %119, i64 %121
  br label %125

123:                                              ; preds = %109
  %124 = load ptr, ptr %17, align 8, !tbaa !54
  br label %125

125:                                              ; preds = %123, %118
  %126 = phi ptr [ %122, %118 ], [ %124, %123 ]
  store ptr %126, ptr %17, align 8, !tbaa !54
  br label %58, !llvm.loop !195

127:                                              ; preds = %58
  store i32 0, ptr %12, align 4
  store i32 1, ptr %31, align 4
  br label %128

128:                                              ; preds = %127, %40
  call void @llvm.lifetime.end.p0(i64 4, ptr %30) #12
  call void @llvm.lifetime.end.p0(i64 4, ptr %29) #12
  call void @llvm.lifetime.end.p0(i64 4, ptr %28) #12
  call void @llvm.lifetime.end.p0(i64 4, ptr %27) #12
  call void @llvm.lifetime.end.p0(i64 4, ptr %26) #12
  call void @llvm.lifetime.end.p0(i64 4, ptr %25) #12
  call void @llvm.lifetime.end.p0(i64 32, ptr %24) #12
  %129 = load i32, ptr %12, align 4
  ret i32 %129
}