; Function Attrs: nofree norecurse nosync nounwind memory(readwrite, inaccessiblemem: none) uwtable
define internal fastcc void @kempf_restore_buf(ptr noundef readonly captures(address_is_null) %0, i32 noundef %1, ptr noundef writeonly captures(none) %2, i32 noundef %3, ptr noundef readonly captures(none) %4, i32 noundef %5, i32 noundef %6, i32 noundef %7, ptr noundef nonnull readonly captures(none) %8, i32 noundef range(i32 1, 257) %9, i32 noundef %10) unnamed_addr #8 {
  %12 = add nsw i32 %6, 15
  %13 = and i32 %12, -16
  %or.cond.i = icmp ugt i32 %1, 268435455
  %14 = shl nuw nsw i32 %1, 3
  %15 = select i1 %or.cond.i, i32 -8, i32 %14
  %or.cond.i.i = icmp ult i32 %15, 2147483135
  %16 = icmp ne ptr %0, null
  %or.cond3.i.i = and i1 %16, %or.cond.i.i
  %17 = add nuw nsw i32 %15, 8
  %18 = select i1 %or.cond3.i.i, i32 %17, i32 8
  br i1 %or.cond3.i.i, label %19, label %.loopexit

19:                                               ; preds = %11
  %20 = icmp samesign ult i32 %9, 3
  br i1 %20, label %25, label %21

21:                                               ; preds = %19
  %22 = icmp samesign ult i32 %9, 5
  br i1 %22, label %25, label %23

23:                                               ; preds = %21
  %24 = icmp samesign ult i32 %9, 17
  %. = select i1 %24, i32 4, i32 8
  br label %25

25:                                               ; preds = %23, %21, %19
  %.035 = phi i32 [ 1, %19 ], [ 2, %21 ], [ %., %23 ]
  %26 = icmp sgt i32 %7, 0
  br i1 %26, label %.lr.ph59, label %.loopexit

.lr.ph59:                                         ; preds = %25
  %27 = icmp sgt i32 %6, 0
  %28 = sub nuw nsw i32 32, %.035
  %29 = sub nsw i32 %13, %6
  %30 = mul nsw i32 %.035, %29
  %31 = sext i32 %3 to i64
  %32 = sext i32 %5 to i64
  br i1 %27, label %.lr.ph59.split.us.preheader, label %.loopexit

.lr.ph59.split.us.preheader:                      ; preds = %.lr.ph59
  %wide.trip.count = zext nneg i32 %6 to i64
  br label %.lr.ph59.split.us

.lr.ph59.split.us:                                ; preds = %.lr.ph59.split.us.preheader, %42
  %.03356.us = phi ptr [ %44, %42 ], [ %2, %.lr.ph59.split.us.preheader ]
  %.03454.us = phi ptr [ %45, %42 ], [ %4, %.lr.ph59.split.us.preheader ]
  %.03653.us = phi i32 [ %43, %42 ], [ 0, %.lr.ph59.split.us.preheader ]
  %.sroa.6.052.us = phi i32 [ %.sroa.6.1.us, %42 ], [ 0, %.lr.ph59.split.us.preheader ]
  %33 = lshr i32 %.sroa.6.052.us, 3
  %34 = zext nneg i32 %33 to i64
  %35 = getelementptr inbounds nuw i8, ptr %0, i64 %34
  %36 = load i32, ptr %35, align 1, !tbaa !45
  %37 = tail call i32 @llvm.bswap.i32(i32 %36)
  %38 = and i32 %.sroa.6.052.us, 7
  %39 = shl i32 %37, %38
  %40 = add i32 %.sroa.6.052.us, 8
  %41 = tail call i32 @llvm.umin.i32(i32 %18, i32 %40)
  %.not.us = icmp ult i32 %39, 16777216
  br i1 %.not.us, label %.preheader.us, label %42

42:                                               ; preds = %._crit_edge.us, %.lr.ph59.split.us
  %.sroa.6.1.us = phi i32 [ %65, %._crit_edge.us ], [ %41, %.lr.ph59.split.us ]
  %43 = add nuw nsw i32 %.03653.us, 1
  %44 = getelementptr inbounds i8, ptr %.03356.us, i64 %31
  %45 = getelementptr inbounds i8, ptr %.03454.us, i64 %32
  %exitcond62.not = icmp eq i32 %43, %7
  br i1 %exitcond62.not, label %.loopexit, label %.lr.ph59.split.us, !llvm.loop !168

.preheader.us:                                    ; preds = %.lr.ph59.split.us, %.preheader.us
  %indvars.iv = phi i64 [ %indvars.iv.next, %.preheader.us ], [ 0, %.lr.ph59.split.us ]
  %.sroa.6.250.us = phi i32 [ %55, %.preheader.us ], [ %41, %.lr.ph59.split.us ]
  %46 = lshr i32 %.sroa.6.250.us, 3
  %47 = zext nneg i32 %46 to i64
  %48 = getelementptr inbounds nuw i8, ptr %0, i64 %47
  %49 = load i32, ptr %48, align 1, !tbaa !45
  %50 = tail call i32 @llvm.bswap.i32(i32 %49)
  %51 = and i32 %.sroa.6.250.us, 7
  %52 = shl i32 %50, %51
  %53 = lshr i32 %52, %28
  %54 = add i32 %.sroa.6.250.us, %.035
  %55 = tail call i32 @llvm.umin.i32(i32 %18, i32 %54)
  %.not42.us = icmp eq i32 %53, %10
  %56 = mul nuw nsw i64 %indvars.iv, 3
  %57 = getelementptr inbounds nuw i8, ptr %.03356.us, i64 %56
  %58 = getelementptr inbounds nuw i8, ptr %.03454.us, i64 %56
  %59 = mul nuw nsw i32 %53, 3
  %60 = zext nneg i32 %59 to i64
  %61 = getelementptr inbounds nuw i8, ptr %8, i64 %60
  %.sink = select i1 %.not42.us, ptr %58, ptr %61
  tail call void @llvm.memcpy.p0.p0.i64(ptr noundef nonnull align 1 dereferenceable(3) %57, ptr noundef nonnull align 1 dereferenceable(3) %.sink, i64 3, i1 false)
  %indvars.iv.next = add nuw nsw i64 %indvars.iv, 1
  %exitcond.not = icmp eq i64 %indvars.iv.next, %wide.trip.count
  br i1 %exitcond.not, label %._crit_edge.us, label %.preheader.us, !llvm.loop !169

._crit_edge.us:                                   ; preds = %.preheader.us
  %62 = sub nsw i32 0, %55
  %63 = sub nsw i32 %18, %55
  %64 = icmp slt i32 %30, %62
  %..i.i.us = tail call i32 @llvm.smin.i32(i32 %30, i32 %63)
  %.0.i.i43.us = select i1 %64, i32 %62, i32 %..i.i.us
  %65 = add nsw i32 %.0.i.i43.us, %55
  br label %42

.loopexit:                                        ; preds = %42, %.lr.ph59, %25, %11
  ret void
}